Certificate:
    Data:
        Version: 3 (0x2)
        Serial Number: 11995544664491339435 (0xa678bc513656aeab)
    Signature Algorithm: sha256WithRSAEncryption
        Issuer: CN=localhost
        Validity
            Not Before: Jun 15 17:45:20 2020 GMT
            Not After : Jun 13 17:45:20 2030 GMT
        Subject: CN=localhost
        Subject Public Key Info:
            Public Key Algorithm: rsaEncryption
                Public-Key: (4096 bit)
                Modulus:
                    00:d3:89:37:3d:d2:e9:f9:31:62:08:42:69:5b:c3:
                    60:26:9d:95:59:ae:81:4e:ab:59:eb:35:06:30:e3:
                    be:fa:82:10:a5:41:6f:4f:11:0d:75:ba:2d:28:20:
                    27:ac:08:a9:97:ee:c1:9f:ba:91:3d:22:21:2a:22:
                    85:b8:05:33:8f:92:2c:df:dd:d0:7c:65:d5:89:1c:
                    96:9d:5a:4c:7b:ae:70:06:f2:e5:82:a9:7d:9b:7b:
                    82:23:94:bb:95:b9:7a:4d:5d:f4:60:99:2f:23:6c:
                    f5:02:55:8c:8c:e5:0c:90:68:ee:fa:e7:64:07:e7:
                    b9:36:42:72:37:7e:d8:0b:39:0b:f9:f4:bf:d5:a2:
                    f9:59:e1:9b:9e:bc:2e:e7:db:12:d3:1e:b7:c0:8d:
                    25:7e:e9:79:60:d3:26:21:78:11:11:16:f9:76:38:
                    70:7e:fd:b7:f9:d4:8b:ea:da:ea:29:24:7c:ad:0b:
                    ae:e2:4d:57:76:d5:6d:7e:c2:35:b1:e3:13:63:bb:
                    98:02:96:6b:d6:b7:fc:ff:9d:f4:1d:30:96:0e:c3:
                    3b:8d:0e:a2:06:75:ae:d1:b7:95:06:27:17:5a:3b:
                    36:3c:57:41:a8:6d:42:db:91:80:01:5e:95:06:44:
                    d3:f9:2e:44:53:75:44:15:8d:63:5f:ba:d9:f3:9d:
                    9c:75:5d:27:af:63:71:97:4b:eb:c4:c4:47:66:98:
                    94:12:69:2a:03:b7:d4:d9:a5:cc:50:8b:bd:db:31:
                    bf:aa:91:0d:c0:90:8b:3e:49:2e:dd:83:47:a5:db:
                    76:ec:88:6f:01:ec:f2:8f:90:91:7d:d4:05:c3:e1:
                    82:d6:59:10:4d:6b:9e:5b:bb:05:d3:15:f9:8f:92:
                    dd:ed:02:af:55:09:16:18:70:fb:bc:28:ad:28:08:
                    ff:66:d0:bb:26:da:b1:d6:fc:ef:d0:51:1d:5f:a4:
                    82:79:92:88:28:30:65:5f:c2:a4:65:6a:69:1d:50:
                    0a:f8:f1:43:0f:d5:51:f8:e0:2a:2e:6a:48:db:75:
                    67:a6:6f:d9:36:09:f2:92:1c:ef:ae:8f:34:08:62:
                    77:e2:bf:00:d6:74:60:4e:39:d9:97:7f:92:32:d2:
                    bb:f0:f5:f7:6e:1f:99:a3:56:3e:7d:6e:46:4c:72:
                    b5:ac:a7:5b:9f:55:d9:bd:76:71:e0:6e:c8:8c:c1:
                    9e:7b:aa:08:d4:6b:60:d1:73:43:52:df:78:e4:12:
                    01:da:6f:ad:e8:7d:8c:10:46:99:87:19:c2:e9:d6:
                    81:6c:7b:1c:5a:29:8e:47:f6:34:79:cd:3c:81:4e:
                    e8:a5:34:cc:f3:a3:ee:09:41:9e:21:2d:2e:1a:8f:
                    2a:a3:a7
                Exponent: 65537 (0x10001)
        X509v3 extensions:
            X509v3 Subject Alternative Name: 
                DNS:localhost, IP Address:127.0.0.1
    Signature Algorithm: sha256WithRSAEncryption
         72:22:b9:22:b5:45:dc:e0:23:5d:41:20:1b:7b:c1:b7:42:88:
         d3:17:3f:19:13:3f:42:57:c5:69:fe:76:63:05:91:1d:e8:45:
         d2:4b:1c:2b:97:4b:18:9d:b2:a4:17:ae:6d:69:3a:d4:cf:99:
         b2:51:a1:c2:39:3e:5d:82:14:bf:fe:2b:dd:2d:3a:26:aa:87:
         4b:ef:df:27:cc:91:c8:3d:0c:92:0b:5c:2b:13:ff:78:d8:d3:
         78:a4:89:69:f9:e2:90:ae:be:8f:11:5b:1d:80:8e:69:05:17:
         c7:58:49:16:78:31:98:66:c9:2c:50:65:69:00:a4:51:c2:d1:
         bd:96:c0:de:4d:fd:27:b2:97:e9:75:50:c4:2c:92:f5:5b:7e:
         b3:ad:6e:91:c9:9b:ea:a6:5a:3e:45:f3:e6:10:a7:6e:7c:2e:
         2b:24:c7:7f:6d:3b:c7:4f:46:01:0e:bd:79:94:a7:67:da:b5:
         87:90:a0:da:7e:3d:4c:3c:69:d7:ee:9d:ed:a3:84:77:c9:81:
         7b:61:63:63:ca:33:d9:e9:bb:de:b1:c4:7f:13:cf:7d:8a:d8:
         4d:6b:94:15:53:4e:3a:48:c7:0e:89:a7:5a:36:51:85:0d:d1:
         ed:fa:f8:1f:a2:02:f3:6a:ad:0b:73:3b:56:72:83:d7:cb:ba:
         03:2b:6a:76:e5:77:ef:a5:f8:dc:de:a6:d4:4f:39:49:16:7f:
         3c:00:d6:df:f0:51:8c:60:52:a9:29:42:9e:dc:0c:b7:f2:55:
         c6:66:67:27:f5:7d:35:03:c4:fd:6f:34:22:eb:eb:7f:4d:77:
         f9:60:e0:c3:25:73:d4:30:17:24:d3:7d:12:15:df:70:5e:30:
         23:32:39:d0:1a:f7:78:91:90:fb:6f:90:53:e2:35:8f:6e:b7:
         c2:89:dc:48:70:5d:14:d2:f2:ad:65:e5:e2:c7:4f:b6:6d:9a:
         ce:70:10:34:3c:c5:85:16:fd:80:aa:45:e6:ab:04:d5:c9:2b:
         47:dd:fc:7a:99:bc:9c:12:88:e9:d5:d6:e2:49:87:c0:b7:20:
         02:93:c4:8b:65:fa:24:22:8f:27:5a:97:56:1e:09:df:6b:3c:
         dc:39:bc:c4:51:e6:f9:7b:91:c3:72:31:16:e4:79:68:15:a3:
         09:d2:1d:e1:b9:51:05:e4:f0:2b:55:a9:10:f5:a6:ed:9e:3a:
         8b:96:de:0b:fb:12:f9:3f:f1:7d:1c:4a:a5:aa:33:2a:03:80:
         52:8d:c4:f2:69:b3:03:61:29:c5:08:44:00:8b:59:ae:b6:e0:
         4d:fe:13:1d:4b:c7:da:f7:ef:bb:e0:c5:37:c6:78:cc:35:ef:
         be:61:2d:1e:68:b4:0f:1d
-----BEGIN CERTIFICATE-----
MIIEyTCCArGgAwIBAgIJAKZ4vFE2Vq6rMA0GCSqGSIb3DQEBCwUAMBQxEjAQBgNV
BAMMCWxvY2FsaG9zdDAeFw0yMDA2MTUxNzQ1MjBaFw0zMDA2MTMxNzQ1MjBaMBQx
EjAQBgNVBAMMCWxvY2FsaG9zdDCCAiIwDQYJKoZIhvcNAQEBBQADggIPADCCAgoC
ggIBANOJNz3S6fkxYghCaVvDYCadlVmugU6rWes1BjDjvvqCEKVBb08RDXW6LSgg
J6wIqZfuwZ+6kT0iISoihbgFM4+SLN/d0Hxl1Ykclp1aTHuucAby5YKpfZt7giOU
u5W5ek1d9GCZLyNs9QJVjIzlDJBo7vrnZAfnuTZCcjd+2As5C/n0v9Wi+Vnhm568
LufbEtMet8CNJX7peWDTJiF4EREW+XY4cH79t/nUi+ra6ikkfK0LruJNV3bVbX7C
NbHjE2O7mAKWa9a3/P+d9B0wlg7DO40OogZ1rtG3lQYnF1o7NjxXQahtQtuRgAFe
lQZE0/kuRFN1RBWNY1+62fOdnHVdJ69jcZdL68TER2aYlBJpKgO31NmlzFCLvdsx
v6qRDcCQiz5JLt2DR6XbduyIbwHs8o+QkX3UBcPhgtZZEE1rnlu7BdMV+Y+S3e0C
r1UJFhhw+7worSgI/2bQuybasdb879BRHV+kgnmSiCgwZV/CpGVqaR1QCvjxQw/V
UfjgKi5qSNt1Z6Zv2TYJ8pIc766PNAhid+K/ANZ0YE452Zd/kjLSu/D1924fmaNW
Pn1uRkxytaynW59V2b12ceBuyIzBnnuqCNRrYNFzQ1LfeOQSAdpvreh9jBBGmYcZ
wunWgWx7HFopjkf2NHnNPIFO6KU0zPOj7glBniEtLhqPKqOnAgMBAAGjHjAcMBoG
A1UdEQQTMBGCCWxvY2FsaG9zdIcEfwAAATANBgkqhkiG9w0BAQsFAAOCAgEAciK5
IrVF3OAjXUEgG3vBt0KI0xc/GRM/QlfFaf52YwWRHehF0kscK5dLGJ2ypBeubWk6
1M+ZslGhwjk+XYIUv/4r3S06JqqHS+/fJ8yRyD0MkgtcKxP/eNjTeKSJafnikK6+
jxFbHYCOaQUXx1hJFngxmGbJLFBlaQCkUcLRvZbA3k39J7KX6XVQxCyS9Vt+s61u
kcmb6qZaPkXz5hCnbnwuKyTHf207x09GAQ69eZSnZ9q1h5Cg2n49TDxp1+6d7aOE
d8mBe2FjY8oz2em73rHEfxPPfYrYTWuUFVNOOkjHDomnWjZRhQ3R7fr4H6IC82qt
C3M7VnKD18u6AytqduV376X43N6m1E85SRZ/PADW3/BRjGBSqSlCntwMt/JVxmZn
J/V9NQPE/W80Iuvrf013+WDgwyVz1DAXJNN9EhXfcF4wIzI50Br3eJGQ+2+QU+I1
j263woncSHBdFNLyrWXl4sdPtm2aznAQNDzFhRb9gKpF5qsE1ckrR938epm8nBKI
6dXW4kmHwLcgApPEi2X6JCKPJ1qXVh4J32s83Dm8xFHm+XuRw3IxFuR5aBWjCdId
4blRBeTwK1WpEPWm7Z46i5beC/sS+T/xfRxKpaozKgOAUo3E8mmzA2EpxQhEAItZ
rrbgTf4THUvH2vfvu+DFN8Z4zDXvvmEtHmi0Dx0=
-----END CERTIFICATE-----
